; Function Attrs: mustprogress uwtable
define void @_ZN5boost4urls10params_ref6insertENS0_11params_base8iteratorERKNS0_10param_viewE(ptr dead_on_unwind noalias nocapture writable writeonly sret(%"class.boost::urls::params_base::iterator") align 8 %0, ptr nocapture noundef nonnull readonly align 8 dereferenceable(64) %1, ptr noundef byval(%"class.boost::urls::params_base::iterator") align 8 %2, ptr noundef nonnull align 8 dereferenceable(33) %3) local_unnamed_addr #3 align 2 personality ptr @__gxx_personality_v0 {
  %5 = alloca %"struct.boost::urls::detail::params_iter_impl", align 8
  %6 = alloca %"struct.boost::urls::detail::param_iter", align 8
  call void @llvm.lifetime.start.p0(i64 104, ptr nonnull %5) #13
  %7 = getelementptr inbounds nuw i8, ptr %1, i64 56
  %8 = load ptr, ptr %7, align 8, !tbaa !11
  call void @llvm.lifetime.start.p0(i64 48, ptr nonnull %6) #13
  call void @_ZN5boost4urls6detail10param_iterC1ERKNS0_10param_viewE(ptr noundef nonnull align 8 dereferenceable(43) %6, ptr noundef nonnull align 8 dereferenceable(33) %3) #13
  invoke void @_ZN5boost4urls8url_base11edit_paramsERKNS0_6detail16params_iter_implES5_ONS2_15any_params_iterE(ptr dead_on_unwind nonnull writable sret(%"struct.boost::urls::detail::params_iter_impl") align 8 %5, ptr noundef nonnull align 8 dereferenceable(216) %8, ptr noundef nonnull align 8 dereferenceable(104) %2, ptr noundef nonnull align 8 dereferenceable(104) %2, ptr noundef nonnull align 8 dereferenceable(41) %6)
          to label %9 unwind label %14

9:                                                ; preds = %4
  %10 = getelementptr inbounds nuw i8, ptr %1, i64 48
  %.sroa.0.0.copyload = load i24, ptr %10, align 8
  call void @llvm.memcpy.p0.p0.i64(ptr noundef nonnull align 8 dereferenceable(105) %0, ptr noundef nonnull align 8 dereferenceable(104) %5, i64 104, i1 false)
  %11 = getelementptr inbounds nuw i8, ptr %0, i64 104
  %12 = trunc i24 %.sroa.0.0.copyload to i8
  %13 = and i8 %12, 1
  store i8 %13, ptr %11, align 8, !tbaa !30
  call void @_ZN5boost4urls6detail15any_params_iterD2Ev(ptr noundef nonnull align 8 dereferenceable(43) %6) #13
  call void @llvm.lifetime.end.p0(i64 48, ptr nonnull %6) #13
  call void @llvm.lifetime.end.p0(i64 104, ptr nonnull %5) #13
  ret void

14:                                               ; preds = %4
  %15 = landingpad { ptr, i32 }
          cleanup
  call void @_ZN5boost4urls6detail15any_params_iterD2Ev(ptr noundef nonnull align 8 dereferenceable(43) %6) #13
  call void @llvm.lifetime.end.p0(i64 48, ptr nonnull %6) #13
  call void @llvm.lifetime.end.p0(i64 104, ptr nonnull %5) #13
  resume { ptr, i32 } %15
}